; Function Attrs: mustprogress nofree norecurse nosync nounwind willreturn memory(argmem: readwrite) uwtable
define void @EVP_PKEY_meth_copy(ptr noundef captures(none) initializes((8, 256)) %0, ptr noundef readonly captures(none) %1) local_unnamed_addr #4 {
  %3 = load i32, ptr %0, align 8, !tbaa !8
  %4 = getelementptr inbounds nuw i8, ptr %0, i64 4
  %5 = load i32, ptr %4, align 4, !tbaa !14
  tail call void @llvm.memcpy.p0.p0.i64(ptr noundef nonnull align 8 dereferenceable(256) %0, ptr noundef nonnull align 8 dereferenceable(256) %1, i64 256, i1 false), !tbaa.struct !64
  store i32 %3, ptr %0, align 8, !tbaa !8
  store i32 %5, ptr %4, align 4, !tbaa !14
  ret void
}